
/data/ytortorella/emulator/tender-release/cheshire/sw/tests/axirt_budget_isolate.spm.elf:     file format elf64-littleriscv


Disassembly of section .text:

0000000010000000 <__base_spm>:
// Minimal CRT0
.global _start
.align 4
_start:
    // Globally disable Machine and Supervisor interrupts
    csrrc x0, mstatus, 10
    10000000:	30057073          	csrci	mstatus,10

    // Park SMP harts
    csrr t0, mhartid
    10000004:	f14022f3          	csrr	t0,mhartid
    beqz t0, 2f
    10000008:	00028563          	beqz	t0,10000012 <__base_spm+0x12>
1:
    wfi
    1000000c:	10500073          	wfi
    j 1b
    10000010:	bff5                	j	1000000c <__base_spm+0xc>
2:
    // Init stack and global pointer iff linked as nonzero
    mv t1, sp
    10000012:	830a                	mv	t1,sp
    la t0, __stack_pointer$
    10000014:	00000293          	li	t0,0
    beqz t0, 1f
    10000018:	00028363          	beqz	t0,1000001e <__base_spm+0x1e>
    mv sp, t0
    1000001c:	8116                	mv	sp,t0
1:  .option push
    .option norelax
    la t0, __global_pointer$
    1000001e:	00000297          	auipc	t0,0x0
    10000022:	52228293          	addi	t0,t0,1314 # 10000540 <__bss_end>
    beqz t0, 1f
    10000026:	00028363          	beqz	t0,1000002c <__base_spm+0x2c>
    mv gp, t0
    1000002a:	8196                	mv	gp,t0
1:  .option pop

    // Store existing stack, global, return pointers on new stack
    addi sp, sp, -24
    1000002c:	1121                	addi	sp,sp,-24
    sd t1, 0(sp)
    1000002e:	e01a                	sd	t1,0(sp)
    sd gp, 8(sp)
    10000030:	e40e                	sd	gp,8(sp)
    sd ra, 16(sp)
    10000032:	e806                	sd	ra,16(sp)

    // Set trap vector
    la t0, _trap_handler_wrap
    10000034:	00000297          	auipc	t0,0x0
    10000038:	10c28293          	addi	t0,t0,268 # 10000140 <_trap_handler_wrap>
    csrrw x0, mtvec, t0
    1000003c:	30529073          	csrw	mtvec,t0

    // Zero the .bss section
    la t0, __bss_start      // t0 = bss start address
    10000040:	00018293          	mv	t0,gp
    la t1, __bss_end        // t1 = bss end address
    10000044:	00018313          	mv	t1,gp
    sub t2, t1, t0          // t2 = #bytes to zero
    10000048:	405303b3          	sub	t2,t1,t0
    li a0, 0
    1000004c:	4501                	li	a0,0

000000001000004e <_zero_bss_loop>:

_zero_bss_loop:
    addi t4, t2, -32
    1000004e:	fe038e93          	addi	t4,t2,-32
    blez t2, _fp_init           // t2 <= 0? => No bss to zero
    10000052:	02705863          	blez	t2,10000082 <_fp_init>
    blt t4, x0, _zero_bss_rem   // t4 <  0? => Less than 4 words left
    10000056:	020ec063          	bltz	t4,10000076 <_zero_bss_rem>
    sd a0, 0(t0)
    1000005a:	00a2b023          	sd	a0,0(t0)
    sd a0, 8(t0)
    1000005e:	00a2b423          	sd	a0,8(t0)
    sd a0, 16(t0)
    10000062:	00a2b823          	sd	a0,16(t0)
    sd a0, 24(t0)
    10000066:	00a2bc23          	sd	a0,24(t0)
    addi t2, t2, -32
    1000006a:	1381                	addi	t2,t2,-32
    addi t0, t0, 32
    1000006c:	02028293          	addi	t0,t0,32
    bgt t2, x0, _zero_bss_loop  // Still more to go
    10000070:	fc704fe3          	bgtz	t2,1000004e <_zero_bss_loop>
    j _fp_init
    10000074:	a039                	j	10000082 <_fp_init>

0000000010000076 <_zero_bss_rem>:

_zero_bss_rem:
    sb a0, 0(t0)
    10000076:	00a28023          	sb	a0,0(t0)
    addi t2, t2, -1
    1000007a:	13fd                	addi	t2,t2,-1
    addi t0, t0, 1
    1000007c:	0285                	addi	t0,t0,1
    bgt t2, x0, _zero_bss_rem
    1000007e:	fe704ce3          	bgtz	t2,10000076 <_zero_bss_rem>

0000000010000082 <_fp_init>:

_fp_init:
    // Set FS state to "Initial", enabling FP instructions
    li t1, 1
    10000082:	4305                	li	t1,1
    slli t1, t1, 13
    10000084:	0336                	slli	t1,t1,0xd
    csrs mstatus, t1
    10000086:	30032073          	csrs	mstatus,t1

    // Clear all 32 double FP registers
    fcvt.d.l f0, x0
    1000008a:	d2207053          	fcvt.d.l	ft0,zero
    fmv.d f1, f0
    1000008e:	220000d3          	fmv.d	ft1,ft0
    fmv.d f2, f0
    10000092:	22000153          	fmv.d	ft2,ft0
    fmv.d f3, f0
    10000096:	220001d3          	fmv.d	ft3,ft0
    fmv.d f4, f0
    1000009a:	22000253          	fmv.d	ft4,ft0
    fmv.d f5, f0
    1000009e:	220002d3          	fmv.d	ft5,ft0
    fmv.d f6, f0
    100000a2:	22000353          	fmv.d	ft6,ft0
    fmv.d f7, f0
    100000a6:	220003d3          	fmv.d	ft7,ft0
    fmv.d f8, f0
    100000aa:	22000453          	fmv.d	fs0,ft0
    fmv.d f9, f0
    100000ae:	220004d3          	fmv.d	fs1,ft0
    fmv.d f10, f0
    100000b2:	22000553          	fmv.d	fa0,ft0
    fmv.d f11, f0
    100000b6:	220005d3          	fmv.d	fa1,ft0
    fmv.d f12, f0
    100000ba:	22000653          	fmv.d	fa2,ft0
    fmv.d f13, f0
    100000be:	220006d3          	fmv.d	fa3,ft0
    fmv.d f14, f0
    100000c2:	22000753          	fmv.d	fa4,ft0
    fmv.d f15, f0
    100000c6:	220007d3          	fmv.d	fa5,ft0
    fmv.d f16, f0
    100000ca:	22000853          	fmv.d	fa6,ft0
    fmv.d f17, f0
    100000ce:	220008d3          	fmv.d	fa7,ft0
    fmv.d f18, f0
    100000d2:	22000953          	fmv.d	fs2,ft0
    fmv.d f19, f0
    100000d6:	220009d3          	fmv.d	fs3,ft0
    fmv.d f20, f0
    100000da:	22000a53          	fmv.d	fs4,ft0
    fmv.d f21, f0
    100000de:	22000ad3          	fmv.d	fs5,ft0
    fmv.d f22, f0
    100000e2:	22000b53          	fmv.d	fs6,ft0
    fmv.d f23, f0
    100000e6:	22000bd3          	fmv.d	fs7,ft0
    fmv.d f24, f0
    100000ea:	22000c53          	fmv.d	fs8,ft0
    fmv.d f25, f0
    100000ee:	22000cd3          	fmv.d	fs9,ft0
    fmv.d f26, f0
    100000f2:	22000d53          	fmv.d	fs10,ft0
    fmv.d f27, f0
    100000f6:	22000dd3          	fmv.d	fs11,ft0
    fmv.d f28, f0
    100000fa:	22000e53          	fmv.d	ft8,ft0
    fmv.d f29, f0
    100000fe:	22000ed3          	fmv.d	ft9,ft0
    fmv.d f30, f0
    10000102:	22000f53          	fmv.d	ft10,ft0
    fmv.d f31, f0
    10000106:	22000fd3          	fmv.d	ft11,ft0

    // Set FS state to "Clean"
    csrrc x0, mstatus, t1
    1000010a:	30033073          	csrc	mstatus,t1

    // Full fence, then jump to main
    fence
    1000010e:	0ff0000f          	fence
    call main
    10000112:	0dc000ef          	jal	100001ee <main>
    10000116:	00000013          	nop
    1000011a:	00000013          	nop
    1000011e:	0001                	nop

0000000010000120 <_exit>:
// If main returns, we end up here
.global _exit
.align 4
_exit:
    // Restore the original context registers (sp last)
    ld ra, 16(sp)
    10000120:	60c2                	ld	ra,16(sp)
    ld gp, 8(sp)
    10000122:	61a2                	ld	gp,8(sp)
    ld sp, 0(sp)
    10000124:	6102                	ld	sp,0(sp)
    // Save the return value to scratch register 2 and wait forever.
    slli t0, a0, 1
    10000126:	00151293          	slli	t0,a0,0x1
    ori  t0, t0, 1
    1000012a:	0012e293          	ori	t0,t0,1
    la t1, __base_regs
    1000012e:	f3000317          	auipc	t1,0xf3000
    10000132:	ed230313          	addi	t1,t1,-302 # 3000000 <__base_regs>
    sw t0, 8(t1)     // regs.SCRATCH[2]
    10000136:	00532423          	sw	t0,8(t1)
    // Hand over to whatever called us, passing return
    ret
    1000013a:	8082                	ret
    1000013c:	00000013          	nop

0000000010000140 <_trap_handler_wrap>:

// This wraps the C trap handler to save the (integer-only) caller-save
// registers and perform a proper machine-mode exception return.
.align 4
_trap_handler_wrap:
    addi sp, sp, -128
    10000140:	7119                	addi	sp,sp,-128
    sd ra, 120(sp)
    10000142:	fc86                	sd	ra,120(sp)
    sd t0, 112(sp)
    10000144:	f896                	sd	t0,112(sp)
    sd t1, 104(sp)
    10000146:	f49a                	sd	t1,104(sp)
    sd t2, 96(sp)
    10000148:	f09e                	sd	t2,96(sp)
    sd a0, 88(sp)
    1000014a:	ecaa                	sd	a0,88(sp)
    sd a1, 80(sp)
    1000014c:	e8ae                	sd	a1,80(sp)
    sd a2, 72(sp)
    1000014e:	e4b2                	sd	a2,72(sp)
    sd a3, 64(sp)
    10000150:	e0b6                	sd	a3,64(sp)
    sd a4, 56(sp)
    10000152:	fc3a                	sd	a4,56(sp)
    sd a5, 48(sp)
    10000154:	f83e                	sd	a5,48(sp)
    sd a6, 40(sp)
    10000156:	f442                	sd	a6,40(sp)
    sd a7, 32(sp)
    10000158:	f046                	sd	a7,32(sp)
    sd t3, 24(sp)
    1000015a:	ec72                	sd	t3,24(sp)
    sd t4, 16(sp)
    1000015c:	e876                	sd	t4,16(sp)
    sd t5, 8(sp)
    1000015e:	e47a                	sd	t5,8(sp)
    sd t6, 0(sp)
    10000160:	e07e                	sd	t6,0(sp)

    jal trap_vector
    10000162:	02e000ef          	jal	10000190 <trap_vector>

    ld ra, 120(sp)
    10000166:	70e6                	ld	ra,120(sp)
    ld t0, 112(sp)
    10000168:	72c6                	ld	t0,112(sp)
    ld t1, 104(sp)
    1000016a:	7326                	ld	t1,104(sp)
    ld t2, 96(sp)
    1000016c:	7386                	ld	t2,96(sp)
    ld a0, 88(sp)
    1000016e:	6566                	ld	a0,88(sp)
    ld a1, 80(sp)
    10000170:	65c6                	ld	a1,80(sp)
    ld a2, 72(sp)
    10000172:	6626                	ld	a2,72(sp)
    ld a3, 64(sp)
    10000174:	6686                	ld	a3,64(sp)
    ld a4, 56(sp)
    10000176:	7762                	ld	a4,56(sp)
    ld a5, 48(sp)
    10000178:	77c2                	ld	a5,48(sp)
    ld a6, 40(sp)
    1000017a:	7822                	ld	a6,40(sp)
    ld a7, 32(sp)
    1000017c:	7882                	ld	a7,32(sp)
    ld t3, 24(sp)
    1000017e:	6e62                	ld	t3,24(sp)
    ld t4, 16(sp)
    10000180:	6ec2                	ld	t4,16(sp)
    ld t5, 8(sp)
    10000182:	6f22                	ld	t5,8(sp)
    ld t6, 0(sp)
    10000184:	6f82                	ld	t6,0(sp)
    addi sp, sp, 128
    10000186:	6109                	addi	sp,sp,128
    mret
    10000188:	30200073          	mret
    1000018c:	00000013          	nop

0000000010000190 <trap_vector>:

.global trap_vector
.weak trap_vector
.align 4
trap_vector:
    wfi
    10000190:	10500073          	wfi
    j trap_vector
    10000194:	ffdff06f          	j	10000190 <trap_vector>
    10000198:	0001                	nop

000000001000019a <__axirt_set_region>:
    *reg32(&__base_axirt, AXI_RT_LEN_LIMIT_0_REG_OFFSET + group_id * 4) = all_limit;
}

void __axirt_set_region(uint64_t start_addr, uint64_t end_addr, uint8_t region_id, uint8_t mgr_id) {

    *reg32(&__base_axirt, AXI_RT_END_ADDR_SUB_HIGH_0_REG_OFFSET +
    1000019a:	00369713          	slli	a4,a3,0x3
                              AXI_RT_PARAM_NUM_SUB * mgr_id * 4 + region_id * 4) = end_addr >> 32;
    1000019e:	060a                	slli	a2,a2,0x2
    *reg32(&__base_axirt, AXI_RT_END_ADDR_SUB_HIGH_0_REG_OFFSET +
    100001a0:	0b470713          	addi	a4,a4,180
    100001a4:	00c7083b          	addw	a6,a4,a2
    *reg32(&__base_axirt, AXI_RT_END_ADDR_SUB_LOW_0_REG_OFFSET + AXI_RT_PARAM_NUM_SUB * mgr_id * 4 +
    100001a8:	00369713          	slli	a4,a3,0x3
    100001ac:	08470713          	addi	a4,a4,132
static inline volatile uint8_t *reg8(void *base, int offs) {
    return (volatile uint8_t *)((uint8_t *)base + offs);
}

static inline volatile uint32_t *reg32(void *base, int offs) {
    return (volatile uint32_t *)((uint8_t *)base + offs);
    100001b0:	f20c0797          	auipc	a5,0xf20c0
    100001b4:	e5078793          	addi	a5,a5,-432 # 20c0000 <__base_axirt>
                              AXI_RT_PARAM_NUM_SUB * mgr_id * 4 + region_id * 4) = end_addr >> 32;
    100001b8:	4205d893          	srai	a7,a1,0x20
    *reg32(&__base_axirt, AXI_RT_END_ADDR_SUB_LOW_0_REG_OFFSET + AXI_RT_PARAM_NUM_SUB * mgr_id * 4 +
    100001bc:	00c705bb          	addw	a1,a4,a2
                              region_id * 4) = end_addr & 0xffffffff;

    *reg32(&__base_axirt, AXI_RT_START_ADDR_SUB_LOW_0_REG_OFFSET +
    100001c0:	00369713          	slli	a4,a3,0x3
    100001c4:	983e                	add	a6,a6,a5
    100001c6:	02470713          	addi	a4,a4,36
                              AXI_RT_PARAM_NUM_SUB * mgr_id * 4 + region_id * 4) =
        start_addr & 0xffffffff;
    *reg32(&__base_axirt, AXI_RT_START_ADDR_SUB_HIGH_0_REG_OFFSET +
    100001ca:	068e                	slli	a3,a3,0x3
                              AXI_RT_PARAM_NUM_SUB * mgr_id * 4 + region_id * 4) = end_addr >> 32;
    100001cc:	01182023          	sw	a7,0(a6)
    100001d0:	95be                	add	a1,a1,a5
                              region_id * 4) = end_addr & 0xffffffff;
    100001d2:	587d                	li	a6,-1
    *reg32(&__base_axirt, AXI_RT_START_ADDR_SUB_LOW_0_REG_OFFSET +
    100001d4:	9f31                	addw	a4,a4,a2
    *reg32(&__base_axirt, AXI_RT_START_ADDR_SUB_HIGH_0_REG_OFFSET +
    100001d6:	05468693          	addi	a3,a3,84
                              region_id * 4) = end_addr & 0xffffffff;
    100001da:	0105a023          	sw	a6,0(a1)
    100001de:	973e                	add	a4,a4,a5
    *reg32(&__base_axirt, AXI_RT_START_ADDR_SUB_HIGH_0_REG_OFFSET +
    100001e0:	9eb1                	addw	a3,a3,a2
                              AXI_RT_PARAM_NUM_SUB * mgr_id * 4 + region_id * 4) = start_addr >> 32;
    100001e2:	9501                	srai	a0,a0,0x20
                              AXI_RT_PARAM_NUM_SUB * mgr_id * 4 + region_id * 4) =
    100001e4:	00072023          	sw	zero,0(a4)
    100001e8:	96be                	add	a3,a3,a5
                              AXI_RT_PARAM_NUM_SUB * mgr_id * 4 + region_id * 4) = start_addr >> 32;
    100001ea:	c288                	sw	a0,0(a3)
}
    100001ec:	8082                	ret

00000000100001ee <main>:
#define BIT(n) (1UL << (n))
#define BIT_MASK(n) (BIT(n) - 1)

// Check if a hardware feature is present from software
static inline uint32_t chs_hw_feature_present(uint32_t bit) {
    uint32_t features_bitmap = *reg32(&__base_regs, CHESHIRE_HW_FEATURES_REG_OFFSET);
    100001ee:	f3000797          	auipc	a5,0xf3000
    100001f2:	e1278793          	addi	a5,a5,-494 # 3000000 <__base_regs>
    100001f6:	4bbc                	lw	a5,80(a5)
    return (features_bitmap & BIT(bit)) != 0;
    100001f8:	00a7d79b          	srliw	a5,a5,0xa
#define DMA_ALLOCATED_PERIOD 0x10000000
#define FRAGMENTATION_SIZE_BEATS 0 // Max fragmentation applied to bursts

int main(void) {
    // Immediately return an error if AXI_REALM or DMA are not present
    CHECK_ASSERT(-1, chs_hw_feature_present(CHESHIRE_HW_FEATURES_AXIRT_BIT));
    100001fc:	8b85                	andi	a5,a5,1
    100001fe:	32078e63          	beqz	a5,1000053a <main+0x34c>
    uint32_t features_bitmap = *reg32(&__base_regs, CHESHIRE_HW_FEATURES_REG_OFFSET);
    10000202:	f3000797          	auipc	a5,0xf3000
    10000206:	dfe78793          	addi	a5,a5,-514 # 3000000 <__base_regs>
    1000020a:	4bbc                	lw	a5,80(a5)
    return (features_bitmap & BIT(bit)) != 0;
    1000020c:	0067d79b          	srliw	a5,a5,0x6
    CHECK_ASSERT(-2, chs_hw_feature_present(CHESHIRE_HW_FEATURES_DMA_BIT));
    10000210:	8b85                	andi	a5,a5,1
    10000212:	32078263          	beqz	a5,10000536 <main+0x348>

    // This test requires at least two subordinate regions
    CHECK_ASSERT(-3, AXI_RT_PARAM_NUM_SUB >= 2);

    // Get internal hart count
    int num_int_harts = *reg32(&__base_regs, CHESHIRE_NUM_INT_HARTS_REG_OFFSET);
    10000216:	f3000797          	auipc	a5,0xf3000
int main(void) {
    1000021a:	dc010113          	addi	sp,sp,-576
    int num_int_harts = *reg32(&__base_regs, CHESHIRE_NUM_INT_HARTS_REG_OFFSET);
    1000021e:	dea78793          	addi	a5,a5,-534 # 3000000 <__base_regs>
int main(void) {
    10000222:	23213023          	sd	s2,544(sp)
    *reg8(&__base_axirtgrd, 0) = flags;
    10000226:	469d                	li	a3,7
    int num_int_harts = *reg32(&__base_regs, CHESHIRE_NUM_INT_HARTS_REG_OFFSET);
    10000228:	04c7a903          	lw	s2,76(a5)
    *reg32(&__base_axirt, AXI_RT_LEN_LIMIT_0_REG_OFFSET + group_id * 4) = all_limit;
    1000022c:	f20c0717          	auipc	a4,0xf20c0
    *reg8(&__base_axirtgrd, 0) = flags;
    10000230:	f20c2797          	auipc	a5,0xf20c2
    10000234:	dcd78623          	sb	a3,-564(a5) # 20c1ffc <__base_axirtgrd>
int main(void) {
    10000238:	22113c23          	sd	ra,568(sp)
    1000023c:	22813823          	sd	s0,560(sp)
    10000240:	22913423          	sd	s1,552(sp)
    10000244:	21313c23          	sd	s3,536(sp)
    *reg32(&__base_axirt, AXI_RT_LEN_LIMIT_0_REG_OFFSET + group_id * 4) = all_limit;
    10000248:	dd470713          	addi	a4,a4,-556 # 20c0000 <__base_axirt>
    1000024c:	f20c0797          	auipc	a5,0xf20c0
    10000250:	00072a23          	sw	zero,20(a4)
    10000254:	db478793          	addi	a5,a5,-588 # 20c0000 <__base_axirt>
    int num_int_harts = *reg32(&__base_regs, CHESHIRE_NUM_INT_HARTS_REG_OFFSET);
    10000258:	2901                	sext.w	s2,s2
    1000025a:	0007ac23          	sw	zero,24(a5)
    asm volatile("fence" ::: "memory");
    1000025e:	0ff0000f          	fence
    __axirt_set_len_limit_group(FRAGMENTATION_SIZE_BEATS, 0);
    __axirt_set_len_limit_group(FRAGMENTATION_SIZE_BEATS, 1);
    fence();

    // Configure RT unit for all the CVA6 cores (adapt ID if needed).
    for (int id = CVA6_BASE_MGR_ID; id < num_int_harts; id++) {
    10000262:	f20c0417          	auipc	s0,0xf20c0
    10000266:	d9e40413          	addi	s0,s0,-610 # 20c0000 <__base_axirt>
    1000026a:	0f205663          	blez	s2,10000356 <main+0x168>
    1000026e:	f20c0417          	auipc	s0,0xf20c0
    10000272:	d9240413          	addi	s0,s0,-622 # 20c0000 <__base_axirt>
    10000276:	4681                	li	a3,0
                              region_id * 4) = end_addr & 0xffffffff;
    10000278:	557d                	li	a0,-1
                              AXI_RT_PARAM_NUM_SUB * mgr_id * 4 + region_id * 4) = start_addr >> 32;
    1000027a:	4805                	li	a6,1
                              region_id * 4) = period;
}

void __axirt_set_budget(uint32_t budget, uint8_t region_id, uint8_t mgr_id) {
    *reg32(&__base_axirt, AXI_RT_WRITE_BUDGET_0_REG_OFFSET + AXI_RT_PARAM_NUM_SUB * mgr_id * 4 +
                              region_id * 4) = budget;
    1000027c:	10000737          	lui	a4,0x10000
                              AXI_RT_PARAM_NUM_SUB * mgr_id * 4 + region_id * 4) = end_addr >> 32;
    10000280:	0ff6f793          	zext.b	a5,a3
    *reg32(&__base_axirt, AXI_RT_END_ADDR_SUB_HIGH_0_REG_OFFSET +
    10000284:	00379613          	slli	a2,a5,0x3
    10000288:	0b460613          	addi	a2,a2,180
    return (volatile uint32_t *)((uint8_t *)base + offs);
    1000028c:	9622                	add	a2,a2,s0
    *reg32(&__base_axirt, AXI_RT_END_ADDR_SUB_LOW_0_REG_OFFSET + AXI_RT_PARAM_NUM_SUB * mgr_id * 4 +
    1000028e:	00379593          	slli	a1,a5,0x3
                              AXI_RT_PARAM_NUM_SUB * mgr_id * 4 + region_id * 4) = end_addr >> 32;
    10000292:	00062023          	sw	zero,0(a2)
    *reg32(&__base_axirt, AXI_RT_END_ADDR_SUB_LOW_0_REG_OFFSET + AXI_RT_PARAM_NUM_SUB * mgr_id * 4 +
    10000296:	08458593          	addi	a1,a1,132
    *reg32(&__base_axirt, AXI_RT_START_ADDR_SUB_LOW_0_REG_OFFSET +
    1000029a:	00379613          	slli	a2,a5,0x3
    1000029e:	95a2                	add	a1,a1,s0
    100002a0:	02460613          	addi	a2,a2,36
                              region_id * 4) = end_addr & 0xffffffff;
    100002a4:	c188                	sw	a0,0(a1)
    100002a6:	9622                	add	a2,a2,s0
    *reg32(&__base_axirt, AXI_RT_START_ADDR_SUB_HIGH_0_REG_OFFSET +
    100002a8:	00379593          	slli	a1,a5,0x3
                              AXI_RT_PARAM_NUM_SUB * mgr_id * 4 + region_id * 4) =
    100002ac:	00062023          	sw	zero,0(a2)
    *reg32(&__base_axirt, AXI_RT_START_ADDR_SUB_HIGH_0_REG_OFFSET +
    100002b0:	05458593          	addi	a1,a1,84
    *reg32(&__base_axirt, AXI_RT_END_ADDR_SUB_HIGH_0_REG_OFFSET +
    100002b4:	00379613          	slli	a2,a5,0x3
    100002b8:	95a2                	add	a1,a1,s0
    100002ba:	0b860613          	addi	a2,a2,184
                              AXI_RT_PARAM_NUM_SUB * mgr_id * 4 + region_id * 4) = start_addr >> 32;
    100002be:	0005a023          	sw	zero,0(a1)
    100002c2:	9622                	add	a2,a2,s0
    *reg32(&__base_axirt, AXI_RT_END_ADDR_SUB_LOW_0_REG_OFFSET + AXI_RT_PARAM_NUM_SUB * mgr_id * 4 +
    100002c4:	00379593          	slli	a1,a5,0x3
                              AXI_RT_PARAM_NUM_SUB * mgr_id * 4 + region_id * 4) = end_addr >> 32;
    100002c8:	c208                	sw	a0,0(a2)
    *reg32(&__base_axirt, AXI_RT_END_ADDR_SUB_LOW_0_REG_OFFSET + AXI_RT_PARAM_NUM_SUB * mgr_id * 4 +
    100002ca:	08858593          	addi	a1,a1,136
    *reg32(&__base_axirt, AXI_RT_START_ADDR_SUB_LOW_0_REG_OFFSET +
    100002ce:	00379613          	slli	a2,a5,0x3
    100002d2:	95a2                	add	a1,a1,s0
    100002d4:	02860613          	addi	a2,a2,40
                              region_id * 4) = end_addr & 0xffffffff;
    100002d8:	c188                	sw	a0,0(a1)
    100002da:	9622                	add	a2,a2,s0
    *reg32(&__base_axirt, AXI_RT_START_ADDR_SUB_HIGH_0_REG_OFFSET +
    100002dc:	00379593          	slli	a1,a5,0x3
                              AXI_RT_PARAM_NUM_SUB * mgr_id * 4 + region_id * 4) =
    100002e0:	00062023          	sw	zero,0(a2)
    *reg32(&__base_axirt, AXI_RT_START_ADDR_SUB_HIGH_0_REG_OFFSET +
    100002e4:	05858593          	addi	a1,a1,88
    *reg32(&__base_axirt, AXI_RT_WRITE_BUDGET_0_REG_OFFSET + AXI_RT_PARAM_NUM_SUB * mgr_id * 4 +
    100002e8:	00379613          	slli	a2,a5,0x3
    100002ec:	95a2                	add	a1,a1,s0
    100002ee:	0e460613          	addi	a2,a2,228
                              AXI_RT_PARAM_NUM_SUB * mgr_id * 4 + region_id * 4) = start_addr >> 32;
    100002f2:	0105a023          	sw	a6,0(a1)
    100002f6:	9622                	add	a2,a2,s0
    *reg32(&__base_axirt, AXI_RT_READ_BUDGET_0_REG_OFFSET + AXI_RT_PARAM_NUM_SUB * mgr_id * 4 +
    100002f8:	00379593          	slli	a1,a5,0x3
                              region_id * 4) = budget;
    100002fc:	c218                	sw	a4,0(a2)
    *reg32(&__base_axirt, AXI_RT_READ_BUDGET_0_REG_OFFSET + AXI_RT_PARAM_NUM_SUB * mgr_id * 4 +
    100002fe:	11458593          	addi	a1,a1,276
    *reg32(&__base_axirt, AXI_RT_WRITE_BUDGET_0_REG_OFFSET + AXI_RT_PARAM_NUM_SUB * mgr_id * 4 +
    10000302:	00379613          	slli	a2,a5,0x3
    10000306:	95a2                	add	a1,a1,s0
    10000308:	0e860613          	addi	a2,a2,232
                              region_id * 4) = budget;
    1000030c:	c198                	sw	a4,0(a1)
    1000030e:	9622                	add	a2,a2,s0
    *reg32(&__base_axirt, AXI_RT_READ_BUDGET_0_REG_OFFSET + AXI_RT_PARAM_NUM_SUB * mgr_id * 4 +
    10000310:	00379593          	slli	a1,a5,0x3
                              region_id * 4) = budget;
    10000314:	c218                	sw	a4,0(a2)
    *reg32(&__base_axirt, AXI_RT_READ_BUDGET_0_REG_OFFSET + AXI_RT_PARAM_NUM_SUB * mgr_id * 4 +
    10000316:	11858593          	addi	a1,a1,280
    *reg32(&__base_axirt, AXI_RT_WRITE_PERIOD_0_REG_OFFSET + AXI_RT_PARAM_NUM_SUB * mgr_id * 4 +
    1000031a:	00379613          	slli	a2,a5,0x3
    1000031e:	95a2                	add	a1,a1,s0
    10000320:	14460613          	addi	a2,a2,324
                              region_id * 4) = budget;
    10000324:	c198                	sw	a4,0(a1)
    10000326:	9622                	add	a2,a2,s0
    *reg32(&__base_axirt, AXI_RT_READ_PERIOD_0_REG_OFFSET + AXI_RT_PARAM_NUM_SUB * mgr_id * 4 +
    10000328:	00379593          	slli	a1,a5,0x3
                              region_id * 4) = period;
    1000032c:	c218                	sw	a4,0(a2)
    *reg32(&__base_axirt, AXI_RT_READ_PERIOD_0_REG_OFFSET + AXI_RT_PARAM_NUM_SUB * mgr_id * 4 +
    1000032e:	17458593          	addi	a1,a1,372
    *reg32(&__base_axirt, AXI_RT_WRITE_PERIOD_0_REG_OFFSET + AXI_RT_PARAM_NUM_SUB * mgr_id * 4 +
    10000332:	00379613          	slli	a2,a5,0x3
    10000336:	95a2                	add	a1,a1,s0
    10000338:	14860613          	addi	a2,a2,328
    *reg32(&__base_axirt, AXI_RT_READ_PERIOD_0_REG_OFFSET + AXI_RT_PARAM_NUM_SUB * mgr_id * 4 +
    1000033c:	078e                	slli	a5,a5,0x3
                              region_id * 4) = period;
    1000033e:	c198                	sw	a4,0(a1)
    10000340:	9622                	add	a2,a2,s0
    *reg32(&__base_axirt, AXI_RT_READ_PERIOD_0_REG_OFFSET + AXI_RT_PARAM_NUM_SUB * mgr_id * 4 +
    10000342:	17878793          	addi	a5,a5,376
                              region_id * 4) = period;
    10000346:	c218                	sw	a4,0(a2)
    10000348:	97a2                	add	a5,a5,s0
                              region_id * 4) = period;
    1000034a:	c398                	sw	a4,0(a5)
    asm volatile("fence" ::: "memory");
    1000034c:	0ff0000f          	fence
    10000350:	2685                	addiw	a3,a3,1
    10000352:	f2d917e3          	bne	s2,a3,10000280 <main+0x92>
        __axirt_set_period(CVA6_ALLOCATED_PERIOD, 1, id);
        fence();
    }

    // Configure RT unit for the DMA
    int chs_dma_id = CVA6_BASE_MGR_ID + num_int_harts + 1;
    10000356:	0019049b          	addiw	s1,s2,1
    __axirt_set_region(0, 0xffffffff, 0, chs_dma_id);
    1000035a:	59fd                	li	s3,-1
    1000035c:	0ff4f693          	zext.b	a3,s1
    10000360:	0209d593          	srli	a1,s3,0x20
    10000364:	4601                	li	a2,0
    10000366:	4501                	li	a0,0
    10000368:	e436                	sd	a3,8(sp)
    1000036a:	e31ff0ef          	jal	1000019a <__axirt_set_region>
    __axirt_set_region(0x100000000, 0xffffffffffffffff, 1, chs_dma_id);
    1000036e:	66a2                	ld	a3,8(sp)
    10000370:	4605                	li	a2,1
    10000372:	85ce                	mv	a1,s3
    10000374:	02061513          	slli	a0,a2,0x20
    10000378:	e432                	sd	a2,8(sp)
    1000037a:	e21ff0ef          	jal	1000019a <__axirt_set_region>
    *reg32(&__base_axirt, AXI_RT_WRITE_BUDGET_0_REG_OFFSET + AXI_RT_PARAM_NUM_SUB * mgr_id * 4 +
    1000037e:	0ff4f793          	zext.b	a5,s1
    10000382:	00379693          	slli	a3,a5,0x3
    10000386:	0e468693          	addi	a3,a3,228
                              region_id * 4) = budget;
    1000038a:	40000713          	li	a4,1024
    return (volatile uint32_t *)((uint8_t *)base + offs);
    1000038e:	96a2                	add	a3,a3,s0
    *reg32(&__base_axirt, AXI_RT_READ_BUDGET_0_REG_OFFSET + AXI_RT_PARAM_NUM_SUB * mgr_id * 4 +
    10000390:	00379593          	slli	a1,a5,0x3
                              region_id * 4) = budget;
    10000394:	c298                	sw	a4,0(a3)
    *reg32(&__base_axirt, AXI_RT_READ_BUDGET_0_REG_OFFSET + AXI_RT_PARAM_NUM_SUB * mgr_id * 4 +
    10000396:	11458593          	addi	a1,a1,276
    *reg32(&__base_axirt, AXI_RT_WRITE_BUDGET_0_REG_OFFSET + AXI_RT_PARAM_NUM_SUB * mgr_id * 4 +
    1000039a:	00379693          	slli	a3,a5,0x3
    1000039e:	95a2                	add	a1,a1,s0
    100003a0:	0e868693          	addi	a3,a3,232
                              region_id * 4) = budget;
    100003a4:	c198                	sw	a4,0(a1)
    100003a6:	96a2                	add	a3,a3,s0
    *reg32(&__base_axirt, AXI_RT_READ_BUDGET_0_REG_OFFSET + AXI_RT_PARAM_NUM_SUB * mgr_id * 4 +
    100003a8:	00379593          	slli	a1,a5,0x3
                              region_id * 4) = budget;
    100003ac:	c298                	sw	a4,0(a3)
    *reg32(&__base_axirt, AXI_RT_READ_BUDGET_0_REG_OFFSET + AXI_RT_PARAM_NUM_SUB * mgr_id * 4 +
    100003ae:	11858593          	addi	a1,a1,280
    *reg32(&__base_axirt, AXI_RT_WRITE_PERIOD_0_REG_OFFSET + AXI_RT_PARAM_NUM_SUB * mgr_id * 4 +
    100003b2:	00379693          	slli	a3,a5,0x3
    100003b6:	95a2                	add	a1,a1,s0
    100003b8:	14468693          	addi	a3,a3,324
                              region_id * 4) = budget;
    100003bc:	c198                	sw	a4,0(a1)
    100003be:	96a2                	add	a3,a3,s0
                              region_id * 4) = period;
    100003c0:	10000737          	lui	a4,0x10000
    *reg32(&__base_axirt, AXI_RT_READ_PERIOD_0_REG_OFFSET + AXI_RT_PARAM_NUM_SUB * mgr_id * 4 +
    100003c4:	00379593          	slli	a1,a5,0x3
                              region_id * 4) = period;
    100003c8:	c298                	sw	a4,0(a3)
    *reg32(&__base_axirt, AXI_RT_READ_PERIOD_0_REG_OFFSET + AXI_RT_PARAM_NUM_SUB * mgr_id * 4 +
    100003ca:	17458593          	addi	a1,a1,372
    *reg32(&__base_axirt, AXI_RT_WRITE_PERIOD_0_REG_OFFSET + AXI_RT_PARAM_NUM_SUB * mgr_id * 4 +
    100003ce:	00379693          	slli	a3,a5,0x3
    100003d2:	95a2                	add	a1,a1,s0
    100003d4:	14868693          	addi	a3,a3,328
    *reg32(&__base_axirt, AXI_RT_READ_PERIOD_0_REG_OFFSET + AXI_RT_PARAM_NUM_SUB * mgr_id * 4 +
    100003d8:	078e                	slli	a5,a5,0x3
                              region_id * 4) = period;
    100003da:	c198                	sw	a4,0(a1)
    100003dc:	96a2                	add	a3,a3,s0
    *reg32(&__base_axirt, AXI_RT_READ_PERIOD_0_REG_OFFSET + AXI_RT_PARAM_NUM_SUB * mgr_id * 4 +
    100003de:	17878793          	addi	a5,a5,376
                              region_id * 4) = period;
    100003e2:	c298                	sw	a4,0(a3)
    100003e4:	97a2                	add	a5,a5,s0
                              region_id * 4) = period;
    100003e6:	c398                	sw	a4,0(a5)
    asm volatile("fence" ::: "memory");
    100003e8:	0ff0000f          	fence
    __axirt_set_period(DMA_ALLOCATED_PERIOD, 0, chs_dma_id);
    __axirt_set_period(DMA_ALLOCATED_PERIOD, 1, chs_dma_id);
    fence();

    // Enable RT unit for all the cores
    __axirt_enable(BIT_MASK(num_int_harts));
    100003ec:	6622                	ld	a2,8(sp)
}

// config functions
void __axirt_enable(uint32_t enable) {
    *reg32(&__base_axirt, AXI_RT_RT_ENABLE_REG_OFFSET) = enable;
    100003ee:	f20c0797          	auipc	a5,0xf20c0
    100003f2:	c1278793          	addi	a5,a5,-1006 # 20c0000 <__base_axirt>
    100003f6:	01261933          	sll	s2,a2,s2
    100003fa:	397d                	addiw	s2,s2,-1
    100003fc:	0127a623          	sw	s2,12(a5)
    *reg32(&__base_axirt, AXI_RT_IMTU_ENABLE_REG_OFFSET) = enable;
    10000400:	f20c0797          	auipc	a5,0xf20c0
    10000404:	c0078793          	addi	a5,a5,-1024 # 20c0000 <__base_axirt>
    10000408:	0127ae23          	sw	s2,28(a5)

    // Enable RT unit for the DMA
    __axirt_enable(BIT(chs_dma_id));
    1000040c:	00961633          	sll	a2,a2,s1
    *reg32(&__base_axirt, AXI_RT_RT_ENABLE_REG_OFFSET) = enable;
    10000410:	f20c0797          	auipc	a5,0xf20c0
    10000414:	2601                	sext.w	a2,a2
    10000416:	bf078793          	addi	a5,a5,-1040 # 20c0000 <__base_axirt>
    1000041a:	c7d0                	sw	a2,12(a5)
    *reg32(&__base_axirt, AXI_RT_IMTU_ENABLE_REG_OFFSET) = enable;
    1000041c:	f20c0797          	auipc	a5,0xf20c0
    10000420:	be478793          	addi	a5,a5,-1052 # 20c0000 <__base_axirt>
    10000424:	cfd0                	sw	a2,28(a5)
    10000426:	0ff0000f          	fence
    1000042a:	fcaff7b7          	lui	a5,0xfcaff
    fence();

    // Initialize src region and golden values
    for (int i = 0; i < DMA_NUM_BEATS; i++) dma_src[i] = 0xcafedeadbaadf00dULL + i;
    1000042e:	fcaff6b7          	lui	a3,0xfcaff
    10000432:	deb78793          	addi	a5,a5,-533 # fffffffffcafedeb <__base_dram+0xffffffff7cafedeb>
    10000436:	deb68693          	addi	a3,a3,-533 # fffffffffcafedeb <__base_dram+0xffffffff7cafedeb>
    1000043a:	07b2                	slli	a5,a5,0xc
    1000043c:	06b2                	slli	a3,a3,0xc
    1000043e:	d4048637          	lui	a2,0xd4048
    10000442:	dbb78793          	addi	a5,a5,-581
    10000446:	dbb68693          	addi	a3,a3,-581
    1000044a:	54960613          	addi	a2,a2,1353 # ffffffffd4048549 <__base_dram+0xffffffff54048549>
    1000044e:	2e908737          	lui	a4,0x2e908
    10000452:	07b2                	slli	a5,a5,0xc
    10000454:	06b2                	slli	a3,a3,0xc
    10000456:	f9870713          	addi	a4,a4,-104 # 2e907f98 <__bss_end+0x1e907a58>
    1000045a:	1606                	slli	a2,a2,0x21
    1000045c:	adf78793          	addi	a5,a5,-1313
    10000460:	adf68693          	addi	a3,a3,-1313
    10000464:	963a                	add	a2,a2,a4
    10000466:	07b2                	slli	a5,a5,0xc
    10000468:	0a18                	addi	a4,sp,272
    1000046a:	06b2                	slli	a3,a3,0xc
    1000046c:	963a                	add	a2,a2,a4
    1000046e:	07b5                	addi	a5,a5,13
    10000470:	02d68693          	addi	a3,a3,45
    10000474:	00379713          	slli	a4,a5,0x3
    10000478:	9732                	add	a4,a4,a2
    1000047a:	e31c                	sd	a5,0(a4)
    1000047c:	0785                	addi	a5,a5,1
    1000047e:	fed79be3          	bne	a5,a3,10000474 <main+0x286>
    10000482:	0ff0000f          	fence

    // Wait for writes, then launch non-blocking DMA transfer
    fence();
    sys_dma_2d_memcpy((uintptr_t)(void *)dma_dst, (uintptr_t)(void *)dma_src,
    10000486:	04000637          	lui	a2,0x4000
    1000048a:	0a18                	addi	a4,sp,272
\
    static inline uint64_t NAME##_dma_get_status(void) { \
        return *(NAME##_dma_status_ptr()); \
    }

X(sys, &__base_dma)
    1000048c:	f1000797          	auipc	a5,0xf1000
    10000490:	00c706b3          	add	a3,a4,a2
    10000494:	b7478793          	addi	a5,a5,-1164 # 1000000 <__base_dma>
    10000498:	f1000717          	auipc	a4,0xf1000
    1000049c:	0641                	addi	a2,a2,16 # 4000010 <__base_plic+0x10>
    1000049e:	eff4                	sd	a3,216(a5)
    100004a0:	960a                	add	a2,a2,sp
    100004a2:	b6870713          	addi	a4,a4,-1176 # 1000000 <__base_dma>
    100004a6:	f1000797          	auipc	a5,0xf1000
    100004aa:	eb70                	sd	a2,208(a4)
    100004ac:	b5a78793          	addi	a5,a5,-1190 # 1000000 <__base_dma>
    100004b0:	10000713          	li	a4,256
    100004b4:	f3f8                	sd	a4,224(a5)
    100004b6:	40300693          	li	a3,1027
    100004ba:	f1000717          	auipc	a4,0xf1000
    100004be:	f1000797          	auipc	a5,0xf1000
    100004c2:	b4d73323          	sd	a3,-1210(a4) # 1000000 <__base_dma>
    100004c6:	b4278793          	addi	a5,a5,-1214 # 1000000 <__base_dma>
    100004ca:	0e07b823          	sd	zero,240(a5)
    100004ce:	f1000797          	auipc	a5,0xf1000
    100004d2:	b3278793          	addi	a5,a5,-1230 # 1000000 <__base_dma>
    100004d6:	f1000717          	auipc	a4,0xf1000
    100004da:	0e07b423          	sd	zero,232(a5)
    100004de:	b2a70713          	addi	a4,a4,-1238 # 1000000 <__base_dma>
    100004e2:	46a1                	li	a3,8
    100004e4:	f1000797          	auipc	a5,0xf1000
    100004e8:	ff74                	sd	a3,248(a4)
    100004ea:	b1c78793          	addi	a5,a5,-1252 # 1000000 <__base_dma>
    100004ee:	43f8                	lw	a4,68(a5)
    100004f0:	47bc                	lw	a5,72(a5)
    asm volatile("csrr %0, mcycle" : "=r"(mcycle)::"memory");
    100004f2:	b0002773          	csrr	a4,mcycle
                      sizeof(dma_src_cached), 0, 0, DMA_NUM_REPS, DMA_CONF_DECOUPLE_ALL);

    // Wait 5000 cycles for isolation to kick in
    uint64_t end_wait_cycles = get_mcycle() + 5000;
    100004f6:	6785                	lui	a5,0x1
    100004f8:	38878793          	addi	a5,a5,904 # 1388 <axirt.c.ada4c223+0x3ba>
    100004fc:	973e                	add	a4,a4,a5
    100004fe:	b00027f3          	csrr	a5,mcycle
    while (end_wait_cycles > get_mcycle())
    10000502:	fee7eee3          	bltu	a5,a4,100004fe <main+0x310>
        ;

    // Check isolate to check if AXI-REALM isolates the dma when the budget is
    // exceeded. Should return 1 if dma is isolated.
    int isolate_status = (*reg32(&__base_axirt, AXI_RT_ISOLATED_REG_OFFSET) >> chs_dma_id) & 1;
    10000506:	f20c0797          	auipc	a5,0xf20c0
    1000050a:	afa78793          	addi	a5,a5,-1286 # 20c0000 <__base_axirt>
    1000050e:	2687a503          	lw	a0,616(a5)

    // Return 0 if manager was correctly isolated
    return !isolate_status;
}
    10000512:	23813083          	ld	ra,568(sp)
    10000516:	23013403          	ld	s0,560(sp)
    int isolate_status = (*reg32(&__base_axirt, AXI_RT_ISOLATED_REG_OFFSET) >> chs_dma_id) & 1;
    1000051a:	0095553b          	srlw	a0,a0,s1
    return !isolate_status;
    1000051e:	fff54513          	not	a0,a0
}
    10000522:	22813483          	ld	s1,552(sp)
    10000526:	22013903          	ld	s2,544(sp)
    1000052a:	21813983          	ld	s3,536(sp)
    return !isolate_status;
    1000052e:	8905                	andi	a0,a0,1
}
    10000530:	24010113          	addi	sp,sp,576
    10000534:	8082                	ret
    CHECK_ASSERT(-2, chs_hw_feature_present(CHESHIRE_HW_FEATURES_DMA_BIT));
    10000536:	5579                	li	a0,-2
}
    10000538:	8082                	ret
    CHECK_ASSERT(-1, chs_hw_feature_present(CHESHIRE_HW_FEATURES_AXIRT_BIT));
    1000053a:	557d                	li	a0,-1
    1000053c:	8082                	ret
